target datalayout = "e-m:e-p270:32:32-p271:32:32-p272:64:64-i64:64-i128:128-f80:128-n8:16:32:64-S128"
target triple = "x86_64-pc-linux-gnu"

%class.Metadata = type { ptr }
%class.ErrorContext = type { i32, i32, %class.TypeOrigin, %class.TypeOrigin }
%class.TypeOrigin = type { i32, i32, ptr, %class.VerificationType }
%class.VerificationType = type { %union.anon.3 }
%union.anon.3 = type { ptr }
%class.constantPoolHandle = type { ptr, ptr }
%class.ConstantPool = type <{ %class.Metadata, ptr, ptr, ptr, ptr, ptr, i16, i16, i16, i16, i16, [2 x i8], i32, %union.anon.10, [4 x i8] }>
%union.anon.10 = type { i32 }

@.str.103 = private unnamed_addr constant [43 x i8] c"Illegal constant pool index %d in class %s\00", align 1

; Function Attrs: mustprogress nounwind uwtable
define linkonce_odr hidden void @_ZN16VerificationTypeC2Ev(ptr noundef nonnull align 8 dereferenceable(8) %0) unnamed_addr #1 comdat align 2 {
  %2 = alloca ptr, align 8
  %3 = alloca %class.VerificationType, align 8
  store ptr %0, ptr %2, align 8
  %4 = load ptr, ptr %2, align 8
  %5 = call ptr @_ZN16VerificationType10bogus_typeEv()
  %6 = getelementptr inbounds %class.VerificationType, ptr %3, i32 0, i32 0
  %7 = getelementptr inbounds %union.anon.3, ptr %6, i32 0, i32 0
  store ptr %5, ptr %7, align 8
  call void @llvm.memcpy.p0.p0.i64(ptr align 8 %4, ptr align 8 %3, i64 8, i1 false)
  ret void
}

; Function Attrs: mustprogress nounwind uwtable
define linkonce_odr hidden void @_ZN16VerificationTypeC2Em(ptr noundef nonnull align 8 dereferenceable(8) %0, i64 noundef %1) unnamed_addr #1 comdat align 2 {
  %3 = alloca ptr, align 8
  %4 = alloca i64, align 8
  store ptr %0, ptr %3, align 8
  store i64 %1, ptr %4, align 8
  %5 = load ptr, ptr %3, align 8
  %6 = load i64, ptr %4, align 8
  %7 = getelementptr inbounds %class.VerificationType, ptr %5, i32 0, i32 0
  store i64 %6, ptr %7, align 8
  ret void
}

; Function Attrs: mustprogress nounwind uwtable
define linkonce_odr hidden void @_ZN10TypeOriginC2Ev(ptr noundef nonnull align 8 dereferenceable(24) %0) unnamed_addr #1 comdat align 2 {
  %2 = alloca ptr, align 8
  store ptr %0, ptr %2, align 8
  %3 = load ptr, ptr %2, align 8
  %4 = getelementptr inbounds %class.TypeOrigin, ptr %3, i32 0, i32 0
  store i32 9, ptr %4, align 8
  %5 = getelementptr inbounds %class.TypeOrigin, ptr %3, i32 0, i32 1
  store i32 0, ptr %5, align 4
  %6 = getelementptr inbounds %class.TypeOrigin, ptr %3, i32 0, i32 2
  store ptr null, ptr %6, align 8
  %7 = getelementptr inbounds %class.TypeOrigin, ptr %3, i32 0, i32 3
  call void @_ZN16VerificationTypeC2Ev(ptr noundef nonnull align 8 dereferenceable(8) %7)
  ret void
}

; Function Attrs: mustprogress nounwind uwtable
define linkonce_odr hidden void @_ZN10TypeOriginC2ENS_6OriginEiP13StackMapFrame16VerificationType(ptr noundef nonnull align 8 dereferenceable(24) %0, i32 noundef %1, i32 noundef %2, ptr noundef %3, ptr %4) unnamed_addr #1 comdat align 2 {
  %6 = alloca %class.VerificationType, align 8
  %7 = alloca ptr, align 8
  %8 = alloca i32, align 4
  %9 = alloca i32, align 4
  %10 = alloca ptr, align 8
  %11 = getelementptr inbounds %class.VerificationType, ptr %6, i32 0, i32 0
  %12 = getelementptr inbounds %union.anon.3, ptr %11, i32 0, i32 0
  store ptr %4, ptr %12, align 8
  store ptr %0, ptr %7, align 8
  store i32 %1, ptr %8, align 4
  store i32 %2, ptr %9, align 4
  store ptr %3, ptr %10, align 8
  %13 = load ptr, ptr %7, align 8
  %14 = getelementptr inbounds %class.TypeOrigin, ptr %13, i32 0, i32 0
  %15 = load i32, ptr %8, align 4
  store i32 %15, ptr %14, align 8
  %16 = getelementptr inbounds %class.TypeOrigin, ptr %13, i32 0, i32 1
  %17 = load i32, ptr %9, align 4
  store i32 %17, ptr %16, align 4
  %18 = getelementptr inbounds %class.TypeOrigin, ptr %13, i32 0, i32 2
  %19 = load ptr, ptr %10, align 8
  store ptr %19, ptr %18, align 8
  %20 = getelementptr inbounds %class.TypeOrigin, ptr %13, i32 0, i32 3
  call void @llvm.memcpy.p0.p0.i64(ptr align 8 %20, ptr align 8 %6, i64 8, i1 false)
  ret void
}

; Function Attrs: mustprogress nounwind uwtable
define linkonce_odr hidden ptr @_ZN16VerificationType10bogus_typeEv() #1 comdat align 2 {
  %1 = alloca %class.VerificationType, align 8
  call void @_ZN16VerificationTypeC2Em(ptr noundef nonnull align 8 dereferenceable(8) %1, i64 noundef 4294901761)
  %2 = getelementptr inbounds %class.VerificationType, ptr %1, i32 0, i32 0
  %3 = getelementptr inbounds %union.anon.3, ptr %2, i32 0, i32 0
  %4 = load ptr, ptr %3, align 8
  ret ptr %4
}

; Function Attrs: mustprogress nounwind uwtable
define linkonce_odr hidden void @_ZN12ErrorContextC2EiNS_9FaultTypeE10TypeOrigin(ptr noundef nonnull align 8 dereferenceable(56) %0, i32 noundef %1, i32 noundef %2, ptr noundef byval(%class.TypeOrigin) align 8 %3) unnamed_addr #1 comdat align 2 {
  %5 = alloca ptr, align 8
  %6 = alloca i32, align 4
  %7 = alloca i32, align 4
  store ptr %0, ptr %5, align 8
  store i32 %1, ptr %6, align 4
  store i32 %2, ptr %7, align 4
  %8 = load ptr, ptr %5, align 8
  %9 = getelementptr inbounds %class.ErrorContext, ptr %8, i32 0, i32 0
  %10 = load i32, ptr %6, align 4
  store i32 %10, ptr %9, align 8
  %11 = getelementptr inbounds %class.ErrorContext, ptr %8, i32 0, i32 1
  %12 = load i32, ptr %7, align 4
  store i32 %12, ptr %11, align 4
  %13 = getelementptr inbounds %class.ErrorContext, ptr %8, i32 0, i32 2
  call void @llvm.memcpy.p0.p0.i64(ptr align 8 %13, ptr align 8 %3, i64 24, i1 false)
  %14 = getelementptr inbounds %class.ErrorContext, ptr %8, i32 0, i32 3
  call void @_ZN10TypeOriginC2Ev(ptr noundef nonnull align 8 dereferenceable(24) %14)
  ret void
}

; Function Attrs: mustprogress nounwind uwtable
define hidden void @_ZN10TypeOrigin9bad_indexEi(ptr dead_on_unwind noalias writable sret(%class.TypeOrigin) align 8 %0, i32 noundef %1) #1 align 2 {
  %3 = alloca i32, align 4
  %4 = alloca %class.VerificationType, align 8
  store i32 %1, ptr %3, align 4
  %5 = load i32, ptr %3, align 4
  %6 = call ptr @_ZN16VerificationType10bogus_typeEv()
  %7 = getelementptr inbounds %class.VerificationType, ptr %4, i32 0, i32 0
  %8 = getelementptr inbounds %union.anon.3, ptr %7, i32 0, i32 0
  store ptr %6, ptr %8, align 8
  %9 = getelementptr inbounds %class.VerificationType, ptr %4, i32 0, i32 0
  %10 = getelementptr inbounds %union.anon.3, ptr %9, i32 0, i32 0
  %11 = load ptr, ptr %10, align 8
  call void @_ZN10TypeOriginC2ENS_6OriginEiP13StackMapFrame16VerificationType(ptr noundef nonnull align 8 dereferenceable(24) %0, i32 noundef 7, i32 noundef %5, ptr noundef null, ptr %11)
  ret void
}

; Function Attrs: mustprogress nounwind uwtable
define linkonce_odr hidden noundef ptr @_ZNK18constantPoolHandle12non_null_objEv(ptr noundef nonnull align 8 dereferenceable(16) %0) #1 comdat align 2 {
  %2 = alloca ptr, align 8
  store ptr %0, ptr %2, align 8
  %3 = load ptr, ptr %2, align 8
  %4 = getelementptr inbounds %class.constantPoolHandle, ptr %3, i32 0, i32 0
  %5 = load ptr, ptr %4, align 8
  ret ptr %5
}

; Function Attrs: mustprogress nounwind uwtable
define linkonce_odr hidden noundef ptr @_ZNK12ConstantPool11pool_holderEv(ptr noundef nonnull align 8 dereferenceable(68) %0) #1 comdat align 2 {
  %2 = alloca ptr, align 8
  store ptr %0, ptr %2, align 8
  %3 = load ptr, ptr %2, align 8
  %4 = getelementptr inbounds %class.ConstantPool, ptr %3, i32 0, i32 3
  %5 = load ptr, ptr %4, align 8
  ret ptr %5
}

; Function Attrs: mustprogress nounwind uwtable
define linkonce_odr hidden void @_ZN12ErrorContext12bad_cp_indexEii(ptr dead_on_unwind noalias writable sret(%class.ErrorContext) align 8 %0, i32 noundef %1, i32 noundef %2) #1 comdat align 2 {
  %4 = alloca i32, align 4
  %5 = alloca i32, align 4
  %6 = alloca %class.TypeOrigin, align 8
  store i32 %1, ptr %4, align 4
  store i32 %2, ptr %5, align 4
  %7 = load i32, ptr %4, align 4
  %8 = load i32, ptr %5, align 4
  call void @_ZN10TypeOrigin9bad_indexEi(ptr dead_on_unwind writable sret(%class.TypeOrigin) align 8 %6, i32 noundef %8)
  call void @_ZN12ErrorContextC2EiNS_9FaultTypeE10TypeOrigin(ptr noundef nonnull align 8 dereferenceable(56) %0, i32 noundef %7, i32 noundef 3, ptr noundef byval(%class.TypeOrigin) align 8 %6)
  ret void
}

; Function Attrs: mustprogress nounwind uwtable
define linkonce_odr hidden noundef i32 @_ZNK12ConstantPool6lengthEv(ptr noundef nonnull align 8 dereferenceable(68) %0) #1 comdat align 2 {
  %2 = alloca ptr, align 8
  store ptr %0, ptr %2, align 8
  %3 = load ptr, ptr %2, align 8
  %4 = getelementptr inbounds %class.ConstantPool, ptr %3, i32 0, i32 12
  %5 = load i32, ptr %4, align 4
  ret i32 %5
}

; Function Attrs: mustprogress nounwind uwtable
define linkonce_odr hidden noundef ptr @_ZNK18constantPoolHandleptEv(ptr noundef nonnull align 8 dereferenceable(16) %0) #1 comdat align 2 {
  %2 = alloca ptr, align 8
  store ptr %0, ptr %2, align 8
  %3 = load ptr, ptr %2, align 8
  %4 = call noundef ptr @_ZNK18constantPoolHandle12non_null_objEv(ptr noundef nonnull align 8 dereferenceable(16) %3)
  ret ptr %4
}

; Function Attrs: mustprogress nounwind uwtable
define hidden void @_ZN13ClassVerifier15verify_cp_indexEiRK18constantPoolHandletP10JavaThread(ptr noundef nonnull align 8 dereferenceable(8192) %0, i32 noundef %1, ptr noundef nonnull align 8 dereferenceable(16) %2, i16 noundef zeroext %3, ptr noundef %4) #1 align 2 {
  %6 = alloca ptr, align 8
  %7 = alloca i32, align 4
  %8 = alloca ptr, align 8
  %9 = alloca i16, align 2
  %10 = alloca ptr, align 8
  %11 = alloca i32, align 4
  %12 = alloca %class.ErrorContext, align 8
  store ptr %0, ptr %6, align 8
  store i32 %1, ptr %7, align 4
  store ptr %2, ptr %8, align 8
  store i16 %3, ptr %9, align 2
  store ptr %4, ptr %10, align 8
  %13 = load ptr, ptr %6, align 8
  %14 = load ptr, ptr %8, align 8
  %15 = call noundef ptr @_ZNK18constantPoolHandleptEv(ptr noundef nonnull align 8 dereferenceable(16) %14)
  %16 = call noundef i32 @_ZNK12ConstantPool6lengthEv(ptr noundef nonnull align 8 dereferenceable(68) %15)
  store i32 %16, ptr %11, align 4
  %17 = load i16, ptr %9, align 2
  %18 = zext i16 %17 to i32
  %19 = icmp sle i32 %18, 0
  br i1 %19, label %25, label %20

20:                                               ; preds = %5
  %21 = load i16, ptr %9, align 2
  %22 = zext i16 %21 to i32
  %23 = load i32, ptr %11, align 4
  %24 = icmp sge i32 %22, %23
  br i1 %24, label %25, label %35

25:                                               ; preds = %20, %5
  %26 = load i32, ptr %7, align 4
  %27 = load i16, ptr %9, align 2
  %28 = zext i16 %27 to i32
  call void @_ZN12ErrorContext12bad_cp_indexEii(ptr dead_on_unwind writable sret(%class.ErrorContext) align 8 %12, i32 noundef %26, i32 noundef %28)
  %29 = load i16, ptr %9, align 2
  %30 = zext i16 %29 to i32
  %31 = load ptr, ptr %8, align 8
  %32 = call noundef ptr @_ZNK18constantPoolHandleptEv(ptr noundef nonnull align 8 dereferenceable(16) %31)
  %33 = call noundef ptr @_ZNK12ConstantPool11pool_holderEv(ptr noundef nonnull align 8 dereferenceable(68) %32)
  %34 = call noundef ptr @_ZNK5Klass13external_nameEv(ptr noundef nonnull align 8 dereferenceable(196) %33)
  call void (ptr, ptr, ptr, ...) @_ZN13ClassVerifier12verify_errorE12ErrorContextPKcz(ptr noundef nonnull align 8 dereferenceable(8192) %13, ptr noundef byval(%class.ErrorContext) align 8 %12, ptr noundef @.str.103, i32 noundef %30, ptr noundef %34)
  br label %35

35:                                               ; preds = %25, %20
  ret void
}