; Function Attrs: mustprogress nounwind uwtable
define hidden void @_ZN13ClassVerifier15verify_cp_indexEiRK18constantPoolHandletP10JavaThread(ptr nocapture noundef nonnull writeonly align 8 dereferenceable(8192) %0, i32 noundef %1, ptr nocapture noundef nonnull readonly align 8 dereferenceable(16) %2, i16 noundef zeroext %3, ptr nocapture noundef readnone %4) local_unnamed_addr #1 align 2 {
  %6 = alloca %class.ErrorContext, align 8
  %7 = load ptr, ptr %2, align 8
  %8 = getelementptr inbounds i8, ptr %7, i64 60
  %9 = load i32, ptr %8, align 4
  %10 = zext i16 %3 to i32
  %11 = icmp ne i16 %3, 0
  %.not = icmp sgt i32 %9, %10
  %or.cond = and i1 %11, %.not
  br i1 %or.cond, label %22, label %12

12:                                               ; preds = %5
  store i32 %1, ptr %6, align 8, !alias.scope !345
  %13 = getelementptr inbounds i8, ptr %6, i64 4
  store i32 3, ptr %13, align 4, !alias.scope !345
  %14 = getelementptr inbounds i8, ptr %6, i64 8
  store i32 7, ptr %14, align 8, !alias.scope !345
  %.sroa.43.0..sroa_idx.i = getelementptr inbounds i8, ptr %6, i64 12
  store i32 %10, ptr %.sroa.43.0..sroa_idx.i, align 4, !alias.scope !345
  %.sroa.5.0..sroa_idx.i = getelementptr inbounds i8, ptr %6, i64 16
  store ptr null, ptr %.sroa.5.0..sroa_idx.i, align 8, !alias.scope !345
  %.sroa.6.0..sroa_idx.i = getelementptr inbounds i8, ptr %6, i64 24
  store ptr inttoptr (i64 4294901761 to ptr), ptr %.sroa.6.0..sroa_idx.i, align 8, !alias.scope !345
  %15 = getelementptr inbounds i8, ptr %6, i64 32
  store i32 9, ptr %15, align 8, !alias.scope !345
  %16 = getelementptr inbounds i8, ptr %6, i64 36
  store i32 0, ptr %16, align 4, !alias.scope !345
  %17 = getelementptr inbounds i8, ptr %6, i64 40
  store ptr null, ptr %17, align 8, !alias.scope !345
  %18 = getelementptr inbounds i8, ptr %6, i64 48
  store ptr inttoptr (i64 4294901761 to ptr), ptr %18, align 8, !alias.scope !345
  %19 = getelementptr inbounds i8, ptr %7, i64 24
  %20 = load ptr, ptr %19, align 8
  %21 = tail call noundef ptr @_ZNK5Klass13external_nameEv(ptr noundef nonnull align 8 dereferenceable(196) %20) #20
  tail call void (ptr, ptr, ptr, ...) @_ZN13ClassVerifier12verify_errorE12ErrorContextPKcz(ptr noundef nonnull align 8 dereferenceable(8192) %0, ptr noundef nonnull byval(%class.ErrorContext) align 8 %6, ptr noundef nonnull @.str.103, i32 noundef %10, ptr noundef %21)
  br label %22

22:                                               ; preds = %5, %12
  ret void
}